; Function Attrs: mustprogress uwtable
define void @_ZN6icu_7518UnicodeSetIterator5resetERKNS_10UnicodeSetE(ptr nocapture noundef nonnull align 8 dereferenceable(64) %this, ptr noundef nonnull align 8 dereferenceable(200) %uSet) local_unnamed_addr #1 align 2 {
if.end.i:
  %set = getelementptr inbounds i8, ptr %this, i64 24
  store ptr %uSet, ptr %set, align 8
  %call.i = tail call noundef i32 @_ZNK6icu_7510UnicodeSet13getRangeCountEv(ptr noundef nonnull align 8 dereferenceable(200) %uSet)
  %sub.i = add nsw i32 %call.i, -1
  %endRange3.i = getelementptr inbounds i8, ptr %this, i64 32
  store i32 %sub.i, ptr %endRange3.i, align 8
  %0 = load ptr, ptr %set, align 8
  %call5.i = tail call noundef i32 @_ZNK6icu_7510UnicodeSet11stringsSizeEv(ptr noundef nonnull align 8 dereferenceable(200) %0)
  %.pre.i = load i32, ptr %endRange3.i, align 8
  %1 = icmp sgt i32 %.pre.i, -1
  %2 = getelementptr inbounds i8, ptr %this, i64 52
  store i32 %call5.i, ptr %2, align 4
  %range.i = getelementptr inbounds i8, ptr %this, i64 36
  store i32 0, ptr %range.i, align 4
  %endElement.i = getelementptr inbounds i8, ptr %this, i64 40
  store i32 -1, ptr %endElement.i, align 8
  %nextElement.i = getelementptr inbounds i8, ptr %this, i64 44
  store i32 0, ptr %nextElement.i, align 4
  br i1 %1, label %if.then9.i, label %_ZN6icu_7518UnicodeSetIterator5resetEv.exit

if.then9.i:                                       ; preds = %if.end.i
  %3 = load ptr, ptr %set, align 8
  %call.i.i = tail call noundef i32 @_ZNK6icu_7510UnicodeSet13getRangeStartEi(ptr noundef nonnull align 8 dereferenceable(200) %3, i32 noundef 0)
  store i32 %call.i.i, ptr %nextElement.i, align 4
  %4 = load ptr, ptr %set, align 8
  %call3.i.i = tail call noundef i32 @_ZNK6icu_7510UnicodeSet11getRangeEndEi(ptr noundef nonnull align 8 dereferenceable(200) %4, i32 noundef 0)
  store i32 %call3.i.i, ptr %endElement.i, align 8
  br label %_ZN6icu_7518UnicodeSetIterator5resetEv.exit

_ZN6icu_7518UnicodeSetIterator5resetEv.exit:      ; preds = %if.end.i, %if.then9.i
  %nextString.i = getelementptr inbounds i8, ptr %this, i64 48
  store i32 0, ptr %nextString.i, align 8
  %string.i = getelementptr inbounds i8, ptr %this, i64 16
  store ptr null, ptr %string.i, align 8
  ret void
}